; Function Attrs: nounwind uwtable
define range(i32 0, 2) i32 @N_VInvTest_SensWrapper(ptr noundef readonly captures(none) %0, ptr noundef readonly captures(none) %1) #0 {
  %3 = load ptr, ptr %0, align 8, !tbaa !39
  %4 = getelementptr inbounds nuw i8, ptr %3, i64 8
  %5 = load i32, ptr %4, align 8, !tbaa !33
  %6 = icmp sgt i32 %5, 0
  br i1 %6, label %.lr.ph, label %._crit_edge

.lr.ph:                                           ; preds = %2, %.lr.ph
  %indvars.iv = phi i64 [ %indvars.iv.next, %.lr.ph ], [ 0, %2 ]
  %7 = phi ptr [ %16, %.lr.ph ], [ %3, %2 ]
  %.089 = phi i32 [ %spec.select, %.lr.ph ], [ 1, %2 ]
  %8 = load ptr, ptr %7, align 8, !tbaa !38
  %9 = getelementptr inbounds nuw ptr, ptr %8, i64 %indvars.iv
  %10 = load ptr, ptr %9, align 8, !tbaa !40
  %11 = load ptr, ptr %1, align 8, !tbaa !39
  %12 = load ptr, ptr %11, align 8, !tbaa !38
  %13 = getelementptr inbounds nuw ptr, ptr %12, i64 %indvars.iv
  %14 = load ptr, ptr %13, align 8, !tbaa !40
  %15 = tail call i32 @N_VInvTest(ptr noundef %10, ptr noundef %14) #7
  %.not = icmp eq i32 %15, 1
  %spec.select = select i1 %.not, i32 %.089, i32 0
  %indvars.iv.next = add nuw nsw i64 %indvars.iv, 1
  %16 = load ptr, ptr %0, align 8, !tbaa !39
  %17 = getelementptr inbounds nuw i8, ptr %16, i64 8
  %18 = load i32, ptr %17, align 8, !tbaa !33
  %19 = sext i32 %18 to i64
  %20 = icmp slt i64 %indvars.iv.next, %19
  br i1 %20, label %.lr.ph, label %._crit_edge

._crit_edge:                                      ; preds = %.lr.ph, %2
  %.08.lcssa = phi i32 [ 1, %2 ], [ %spec.select, %.lr.ph ]
  ret i32 %.08.lcssa
}